target datalayout = "e-m:e-p270:32:32-p271:32:32-p272:64:64-i64:64-i128:128-f80:128-n8:16:32:64-S128"
target triple = "x86_64-pc-linux-gnu"

%union.dt_introspection_field_t = type { %struct.dt_introspection_type_double_t }
%struct.dt_introspection_type_double_t = type { %struct.dt_introspection_type_header_t, double, double, double }
%struct.dt_introspection_type_header_t = type { i32, ptr, ptr, ptr, ptr, i64, i64, ptr }

@.str.10 = private unnamed_addr constant [7 x i8] c"levels\00", align 1
@.str.11 = private unnamed_addr constant [10 x i8] c"autoscale\00", align 1
@.str.46 = private unnamed_addr constant [16 x i8] c"preserve_colors\00", align 1
@.str.69 = private unnamed_addr constant [13 x i8] c"levels[0][0]\00", align 1
@.str.70 = private unnamed_addr constant [10 x i8] c"levels[0]\00", align 1

; Function Attrs: nounwind uwtable
define ptr @get_f(ptr noundef %0) #0 {
  %2 = alloca ptr, align 8
  %3 = alloca ptr, align 8
  store ptr %0, ptr %3, align 8, !tbaa !161
  %4 = load ptr, ptr %3, align 8, !tbaa !161
  %5 = call i32 @g_ascii_strcasecmp(ptr noundef %4, ptr noundef @.str.11)
  %6 = icmp ne i32 %5, 0
  br i1 %6, label %8, label %7

7:                                                ; preds = %1
  store ptr @introspection_linear, ptr %2, align 8
  br label %29

8:                                                ; preds = %1
  %9 = load ptr, ptr %3, align 8, !tbaa !161
  %10 = call i32 @g_ascii_strcasecmp(ptr noundef %9, ptr noundef @.str.46)
  %11 = icmp ne i32 %10, 0
  br i1 %11, label %13, label %12

12:                                               ; preds = %8
  store ptr getelementptr inbounds ([7 x %union.dt_introspection_field_t], ptr @introspection_linear, i64 0, i64 1), ptr %2, align 8
  br label %29

13:                                               ; preds = %8
  %14 = load ptr, ptr %3, align 8, !tbaa !161
  %15 = call i32 @g_ascii_strcasecmp(ptr noundef %14, ptr noundef @.str.69)
  %16 = icmp ne i32 %15, 0
  br i1 %16, label %18, label %17

17:                                               ; preds = %13
  store ptr getelementptr inbounds ([7 x %union.dt_introspection_field_t], ptr @introspection_linear, i64 0, i64 2), ptr %2, align 8
  br label %29

18:                                               ; preds = %13
  %19 = load ptr, ptr %3, align 8, !tbaa !161
  %20 = call i32 @g_ascii_strcasecmp(ptr noundef %19, ptr noundef @.str.70)
  %21 = icmp ne i32 %20, 0
  br i1 %21, label %23, label %22

22:                                               ; preds = %18
  store ptr getelementptr inbounds ([7 x %union.dt_introspection_field_t], ptr @introspection_linear, i64 0, i64 3), ptr %2, align 8
  br label %29

23:                                               ; preds = %18
  %24 = load ptr, ptr %3, align 8, !tbaa !161
  %25 = call i32 @g_ascii_strcasecmp(ptr noundef %24, ptr noundef @.str.10)
  %26 = icmp ne i32 %25, 0
  br i1 %26, label %28, label %27

27:                                               ; preds = %23
  store ptr getelementptr inbounds ([7 x %union.dt_introspection_field_t], ptr @introspection_linear, i64 0, i64 4), ptr %2, align 8
  br label %29

28:                                               ; preds = %23
  store ptr null, ptr %2, align 8
  br label %29

29:                                               ; preds = %28, %27, %22, %17, %12, %7
  %30 = load ptr, ptr %2, align 8
  ret ptr %30
}