; Function Attrs: nounwind uwtable
define ptr @get_f(ptr noundef %0) local_unnamed_addr #1 {
  %2 = tail call i32 @g_ascii_strcasecmp(ptr noundef %0, ptr noundef nonnull @.str.11) #21
  %.not = icmp eq i32 %2, 0
  br i1 %.not, label %11, label %3

3:                                                ; preds = %1
  %4 = tail call i32 @g_ascii_strcasecmp(ptr noundef %0, ptr noundef nonnull @.str.46) #21
  %.not6 = icmp eq i32 %4, 0
  br i1 %.not6, label %11, label %5

5:                                                ; preds = %3
  %6 = tail call i32 @g_ascii_strcasecmp(ptr noundef %0, ptr noundef nonnull @.str.69) #21
  %.not7 = icmp eq i32 %6, 0
  br i1 %.not7, label %11, label %7

7:                                                ; preds = %5
  %8 = tail call i32 @g_ascii_strcasecmp(ptr noundef %0, ptr noundef nonnull @.str.70) #21
  %.not8 = icmp eq i32 %8, 0
  br i1 %.not8, label %11, label %9

9:                                                ; preds = %7
  %10 = tail call i32 @g_ascii_strcasecmp(ptr noundef %0, ptr noundef nonnull @.str.10) #21
  %.not9 = icmp eq i32 %10, 0
  %. = select i1 %.not9, ptr getelementptr inbounds nuw (i8, ptr @introspection_linear, i64 352), ptr null
  br label %11

11:                                               ; preds = %9, %7, %5, %3, %1
  %.0 = phi ptr [ @introspection_linear, %1 ], [ getelementptr inbounds nuw (i8, ptr @introspection_linear, i64 88), %3 ], [ getelementptr inbounds nuw (i8, ptr @introspection_linear, i64 176), %5 ], [ getelementptr inbounds nuw (i8, ptr @introspection_linear, i64 264), %7 ], [ %., %9 ]
  ret ptr %.0
}